target datalayout = "e-m:e-p270:32:32-p271:32:32-p272:64:64-i64:64-i128:128-f80:128-n8:16:32:64-S128"
target triple = "x86_64-pc-linux-gnu"

%struct.AVPixFmtDescriptor = type { ptr, i8, i8, i8, i64, [4 x %struct.AVComponentDescriptor], ptr }
%struct.AVComponentDescriptor = type { i32, i32, i32, i32, i32 }

@.str.3 = private unnamed_addr constant [30 x i8] c"Assertion %s failed at %s:%d\0A\00", align 1
@.str.4 = private unnamed_addr constant [9 x i8] c"ret >= 0\00", align 1
@.str.5 = private unnamed_addr constant [21 x i8] c"libavutil/imgutils.c\00", align 1

; Function Attrs: nounwind uwtable
define i32 @av_image_copy_to_buffer(ptr noundef %0, i32 noundef %1, ptr noundef %2, ptr noundef %3, i32 noundef %4, i32 noundef %5, i32 noundef %6, i32 noundef %7) #0 {
  %9 = alloca i32, align 4
  %10 = alloca ptr, align 8
  %11 = alloca i32, align 4
  %12 = alloca ptr, align 8
  %13 = alloca ptr, align 8
  %14 = alloca i32, align 4
  %15 = alloca i32, align 4
  %16 = alloca i32, align 4
  %17 = alloca i32, align 4
  %18 = alloca i32, align 4
  %19 = alloca i32, align 4
  %20 = alloca i32, align 4
  %21 = alloca [4 x i32], align 16
  %22 = alloca i32, align 4
  %23 = alloca ptr, align 8
  %24 = alloca i32, align 4
  %25 = alloca i32, align 4
  %26 = alloca i32, align 4
  %27 = alloca i32, align 4
  %28 = alloca ptr, align 8
  %29 = alloca ptr, align 8
  store ptr %0, ptr %10, align 8, !tbaa !35
  store i32 %1, ptr %11, align 4, !tbaa !11
  store ptr %2, ptr %12, align 8, !tbaa !32
  store ptr %3, ptr %13, align 8, !tbaa !4
  store i32 %4, ptr %14, align 4, !tbaa !11
  store i32 %5, ptr %15, align 4, !tbaa !11
  store i32 %6, ptr %16, align 4, !tbaa !11
  store i32 %7, ptr %17, align 4, !tbaa !11
  call void @llvm.lifetime.start.p0(i64 4, ptr %18) #9
  call void @llvm.lifetime.start.p0(i64 4, ptr %19) #9
  call void @llvm.lifetime.start.p0(i64 4, ptr %20) #9
  store i32 0, ptr %20, align 4, !tbaa !11
  call void @llvm.lifetime.start.p0(i64 16, ptr %21) #9
  call void @llvm.lifetime.start.p0(i64 4, ptr %22) #9
  %30 = load i32, ptr %14, align 4, !tbaa !11
  %31 = load i32, ptr %15, align 4, !tbaa !11
  %32 = load i32, ptr %16, align 4, !tbaa !11
  %33 = load i32, ptr %17, align 4, !tbaa !11
  %34 = call i32 @av_image_get_buffer_size(i32 noundef %30, i32 noundef %31, i32 noundef %32, i32 noundef %33)
  store i32 %34, ptr %22, align 4, !tbaa !11
  call void @llvm.lifetime.start.p0(i64 8, ptr %23) #9
  %35 = load i32, ptr %14, align 4, !tbaa !11
  %36 = call ptr @av_pix_fmt_desc_get(i32 noundef %35)
  store ptr %36, ptr %23, align 8, !tbaa !9
  call void @llvm.lifetime.start.p0(i64 4, ptr %24) #9
  %37 = load i32, ptr %22, align 4, !tbaa !11
  %38 = load i32, ptr %11, align 4, !tbaa !11
  %39 = icmp sgt i32 %37, %38
  br i1 %39, label %46, label %40

40:                                               ; preds = %8
  %41 = load i32, ptr %22, align 4, !tbaa !11
  %42 = icmp slt i32 %41, 0
  br i1 %42, label %46, label %43

43:                                               ; preds = %40
  %44 = load ptr, ptr %23, align 8, !tbaa !9
  %45 = icmp ne ptr %44, null
  br i1 %45, label %47, label %46

46:                                               ; preds = %43, %40, %8
  store i32 -22, ptr %9, align 4
  store i32 1, ptr %25, align 4
  br label %195

47:                                               ; preds = %43
  store i32 0, ptr %18, align 4, !tbaa !11
  br label %48

48:                                               ; preds = %77, %47
  %49 = load i32, ptr %18, align 4, !tbaa !11
  %50 = load ptr, ptr %23, align 8, !tbaa !9
  %51 = getelementptr inbounds nuw %struct.AVPixFmtDescriptor, ptr %50, i32 0, i32 1
  %52 = load i8, ptr %51, align 8, !tbaa !53
  %53 = zext i8 %52 to i32
  %54 = icmp slt i32 %49, %53
  br i1 %54, label %55, label %80

55:                                               ; preds = %48
  %56 = load ptr, ptr %23, align 8, !tbaa !9
  %57 = getelementptr inbounds nuw %struct.AVPixFmtDescriptor, ptr %56, i32 0, i32 5
  %58 = load i32, ptr %18, align 4, !tbaa !11
  %59 = sext i32 %58 to i64
  %60 = getelementptr inbounds [4 x %struct.AVComponentDescriptor], ptr %57, i64 0, i64 %59
  %61 = getelementptr inbounds nuw %struct.AVComponentDescriptor, ptr %60, i32 0, i32 0
  %62 = load i32, ptr %61, align 4, !tbaa !17
  %63 = load i32, ptr %20, align 4, !tbaa !11
  %64 = icmp sgt i32 %62, %63
  br i1 %64, label %65, label %73

65:                                               ; preds = %55
  %66 = load ptr, ptr %23, align 8, !tbaa !9
  %67 = getelementptr inbounds nuw %struct.AVPixFmtDescriptor, ptr %66, i32 0, i32 5
  %68 = load i32, ptr %18, align 4, !tbaa !11
  %69 = sext i32 %68 to i64
  %70 = getelementptr inbounds [4 x %struct.AVComponentDescriptor], ptr %67, i64 0, i64 %69
  %71 = getelementptr inbounds nuw %struct.AVComponentDescriptor, ptr %70, i32 0, i32 0
  %72 = load i32, ptr %71, align 4, !tbaa !17
  br label %75

73:                                               ; preds = %55
  %74 = load i32, ptr %20, align 4, !tbaa !11
  br label %75

75:                                               ; preds = %73, %65
  %76 = phi i32 [ %72, %65 ], [ %74, %73 ]
  store i32 %76, ptr %20, align 4, !tbaa !11
  br label %77

77:                                               ; preds = %75
  %78 = load i32, ptr %18, align 4, !tbaa !11
  %79 = add nsw i32 %78, 1
  store i32 %79, ptr %18, align 4, !tbaa !11
  br label %48, !llvm.loop !59

80:                                               ; preds = %48
  %81 = load i32, ptr %20, align 4, !tbaa !11
  %82 = add nsw i32 %81, 1
  store i32 %82, ptr %20, align 4, !tbaa !11
  %83 = getelementptr inbounds [4 x i32], ptr %21, i64 0, i64 0
  %84 = load i32, ptr %14, align 4, !tbaa !11
  %85 = load i32, ptr %15, align 4, !tbaa !11
  %86 = call i32 @av_image_fill_linesizes(ptr noundef %83, i32 noundef %84, i32 noundef %85)
  store i32 %86, ptr %24, align 4, !tbaa !11
  br label %87

87:                                               ; preds = %80
  %88 = load i32, ptr %24, align 4, !tbaa !11
  %89 = icmp sge i32 %88, 0
  br i1 %89, label %91, label %90

90:                                               ; preds = %87
  call void (ptr, i32, ptr, ...) @av_log(ptr noundef null, i32 noundef 0, ptr noundef @.str.3, ptr noundef @.str.4, ptr noundef @.str.5, i32 noundef 521)
  call void @abort() #11
  unreachable

91:                                               ; preds = %87
  br label %92

92:                                               ; preds = %91
  br label %93

93:                                               ; preds = %92
  store i32 0, ptr %18, align 4, !tbaa !11
  br label %94

94:                                               ; preds = %162, %93
  %95 = load i32, ptr %18, align 4, !tbaa !11
  %96 = load i32, ptr %20, align 4, !tbaa !11
  %97 = icmp slt i32 %95, %96
  br i1 %97, label %98, label %165

98:                                               ; preds = %94
  call void @llvm.lifetime.start.p0(i64 4, ptr %26) #9
  call void @llvm.lifetime.start.p0(i64 4, ptr %27) #9
  %99 = load i32, ptr %18, align 4, !tbaa !11
  %100 = icmp eq i32 %99, 1
  br i1 %100, label %104, label %101

101:                                              ; preds = %98
  %102 = load i32, ptr %18, align 4, !tbaa !11
  %103 = icmp eq i32 %102, 2
  br i1 %103, label %104, label %109

104:                                              ; preds = %101, %98
  %105 = load ptr, ptr %23, align 8, !tbaa !9
  %106 = getelementptr inbounds nuw %struct.AVPixFmtDescriptor, ptr %105, i32 0, i32 3
  %107 = load i8, ptr %106, align 2, !tbaa !30
  %108 = zext i8 %107 to i32
  br label %110

109:                                              ; preds = %101
  br label %110

110:                                              ; preds = %109, %104
  %111 = phi i32 [ %108, %104 ], [ 0, %109 ]
  store i32 %111, ptr %27, align 4, !tbaa !11
  call void @llvm.lifetime.start.p0(i64 8, ptr %28) #9
  %112 = load ptr, ptr %12, align 8, !tbaa !32
  %113 = load i32, ptr %18, align 4, !tbaa !11
  %114 = sext i32 %113 to i64
  %115 = getelementptr inbounds ptr, ptr %112, i64 %114
  %116 = load ptr, ptr %115, align 8, !tbaa !35
  store ptr %116, ptr %28, align 8, !tbaa !35
  %117 = load i32, ptr %16, align 4, !tbaa !11
  %118 = load i32, ptr %27, align 4, !tbaa !11
  %119 = shl i32 1, %118
  %120 = add nsw i32 %117, %119
  %121 = sub nsw i32 %120, 1
  %122 = load i32, ptr %27, align 4, !tbaa !11
  %123 = ashr i32 %121, %122
  store i32 %123, ptr %26, align 4, !tbaa !11
  store i32 0, ptr %19, align 4, !tbaa !11
  br label %124

124:                                              ; preds = %158, %110
  %125 = load i32, ptr %19, align 4, !tbaa !11
  %126 = load i32, ptr %26, align 4, !tbaa !11
  %127 = icmp slt i32 %125, %126
  br i1 %127, label %128, label %161

128:                                              ; preds = %124
  %129 = load ptr, ptr %10, align 8, !tbaa !35
  %130 = load ptr, ptr %28, align 8, !tbaa !35
  %131 = load i32, ptr %18, align 4, !tbaa !11
  %132 = sext i32 %131 to i64
  %133 = getelementptr inbounds [4 x i32], ptr %21, i64 0, i64 %132
  %134 = load i32, ptr %133, align 4, !tbaa !11
  %135 = sext i32 %134 to i64
  call void @llvm.memcpy.p0.p0.i64(ptr align 1 %129, ptr align 1 %130, i64 %135, i1 false)
  %136 = load i32, ptr %18, align 4, !tbaa !11
  %137 = sext i32 %136 to i64
  %138 = getelementptr inbounds [4 x i32], ptr %21, i64 0, i64 %137
  %139 = load i32, ptr %138, align 4, !tbaa !11
  %140 = load i32, ptr %17, align 4, !tbaa !11
  %141 = add nsw i32 %139, %140
  %142 = sub nsw i32 %141, 1
  %143 = load i32, ptr %17, align 4, !tbaa !11
  %144 = sub nsw i32 %143, 1
  %145 = xor i32 %144, -1
  %146 = and i32 %142, %145
  %147 = load ptr, ptr %10, align 8, !tbaa !35
  %148 = sext i32 %146 to i64
  %149 = getelementptr inbounds i8, ptr %147, i64 %148
  store ptr %149, ptr %10, align 8, !tbaa !35
  %150 = load ptr, ptr %13, align 8, !tbaa !4
  %151 = load i32, ptr %18, align 4, !tbaa !11
  %152 = sext i32 %151 to i64
  %153 = getelementptr inbounds i32, ptr %150, i64 %152
  %154 = load i32, ptr %153, align 4, !tbaa !11
  %155 = load ptr, ptr %28, align 8, !tbaa !35
  %156 = sext i32 %154 to i64
  %157 = getelementptr inbounds i8, ptr %155, i64 %156
  store ptr %157, ptr %28, align 8, !tbaa !35
  br label %158

158:                                              ; preds = %128
  %159 = load i32, ptr %19, align 4, !tbaa !11
  %160 = add nsw i32 %159, 1
  store i32 %160, ptr %19, align 4, !tbaa !11
  br label %124, !llvm.loop !60

161:                                              ; preds = %124
  call void @llvm.lifetime.end.p0(i64 8, ptr %28) #9
  call void @llvm.lifetime.end.p0(i64 4, ptr %27) #9
  call void @llvm.lifetime.end.p0(i64 4, ptr %26) #9
  br label %162

162:                                              ; preds = %161
  %163 = load i32, ptr %18, align 4, !tbaa !11
  %164 = add nsw i32 %163, 1
  store i32 %164, ptr %18, align 4, !tbaa !11
  br label %94, !llvm.loop !61

165:                                              ; preds = %94
  %166 = load ptr, ptr %23, align 8, !tbaa !9
  %167 = getelementptr inbounds nuw %struct.AVPixFmtDescriptor, ptr %166, i32 0, i32 4
  %168 = load i64, ptr %167, align 8, !tbaa !20
  %169 = and i64 %168, 2
  %170 = icmp ne i64 %169, 0
  br i1 %170, label %171, label %193

171:                                              ; preds = %165
  call void @llvm.lifetime.start.p0(i64 8, ptr %29) #9
  %172 = load ptr, ptr %10, align 8, !tbaa !35
  store ptr %172, ptr %29, align 8, !tbaa !4
  store i32 0, ptr %18, align 4, !tbaa !11
  br label %173

173:                                              ; preds = %189, %171
  %174 = load i32, ptr %18, align 4, !tbaa !11
  %175 = icmp slt i32 %174, 256
  br i1 %175, label %176, label %192

176:                                              ; preds = %173
  %177 = load ptr, ptr %12, align 8, !tbaa !32
  %178 = getelementptr inbounds ptr, ptr %177, i64 1
  %179 = load ptr, ptr %178, align 8, !tbaa !35
  %180 = load i32, ptr %18, align 4, !tbaa !11
  %181 = mul nsw i32 4, %180
  %182 = sext i32 %181 to i64
  %183 = getelementptr inbounds i8, ptr %179, i64 %182
  %184 = load i32, ptr %183, align 1, !tbaa !62
  %185 = load ptr, ptr %29, align 8, !tbaa !4
  %186 = load i32, ptr %18, align 4, !tbaa !11
  %187 = sext i32 %186 to i64
  %188 = getelementptr inbounds i32, ptr %185, i64 %187
  store i32 %184, ptr %188, align 1, !tbaa !62
  br label %189

189:                                              ; preds = %176
  %190 = load i32, ptr %18, align 4, !tbaa !11
  %191 = add nsw i32 %190, 1
  store i32 %191, ptr %18, align 4, !tbaa !11
  br label %173, !llvm.loop !63

192:                                              ; preds = %173
  call void @llvm.lifetime.end.p0(i64 8, ptr %29) #9
  br label %193

193:                                              ; preds = %192, %165
  %194 = load i32, ptr %22, align 4, !tbaa !11
  store i32 %194, ptr %9, align 4
  store i32 1, ptr %25, align 4
  br label %195

195:                                              ; preds = %193, %46
  call void @llvm.lifetime.end.p0(i64 4, ptr %24) #9
  call void @llvm.lifetime.end.p0(i64 8, ptr %23) #9
  call void @llvm.lifetime.end.p0(i64 4, ptr %22) #9
  call void @llvm.lifetime.end.p0(i64 16, ptr %21) #9
  call void @llvm.lifetime.end.p0(i64 4, ptr %20) #9
  call void @llvm.lifetime.end.p0(i64 4, ptr %19) #9
  call void @llvm.lifetime.end.p0(i64 4, ptr %18) #9
  %196 = load i32, ptr %9, align 4
  ret i32 %196
}