; Function Attrs: nounwind uwtable
define i32 @av_image_copy_to_buffer(ptr noundef writeonly captures(none) %0, i32 noundef %1, ptr noundef readonly captures(none) %2, ptr noundef readonly captures(none) %3, i32 noundef %4, i32 noundef %5, i32 noundef %6, i32 noundef %7) local_unnamed_addr #3 {
  %9 = alloca [4 x i32], align 16
  call void @llvm.lifetime.start.p0(i64 16, ptr nonnull %9) #11
  %10 = tail call i32 @av_image_get_buffer_size(i32 noundef %4, i32 noundef %5, i32 noundef %6, i32 noundef %7)
  %11 = tail call ptr @av_pix_fmt_desc_get(i32 noundef %4) #11
  %12 = icmp sle i32 %10, %1
  %13 = icmp sgt i32 %10, -1
  %or.cond.not69 = and i1 %12, %13
  %14 = icmp ne ptr %11, null
  %or.cond3 = select i1 %or.cond.not69, i1 %14, i1 false
  br i1 %or.cond3, label %.preheader72, label %.loopexit

.preheader72:                                     ; preds = %8
  %15 = getelementptr inbounds nuw i8, ptr %11, i64 8
  %16 = load i8, ptr %15, align 8, !tbaa !38
  %.not89 = icmp eq i8 %16, 0
  br i1 %.not89, label %._crit_edge, label %.lr.ph

.lr.ph:                                           ; preds = %.preheader72
  %17 = getelementptr inbounds nuw i8, ptr %11, i64 24
  %wide.trip.count = zext i8 %16 to i64
  br label %18

18:                                               ; preds = %.lr.ph, %18
  %indvars.iv = phi i64 [ 0, %.lr.ph ], [ %indvars.iv.next, %18 ]
  %.06573 = phi i32 [ 0, %.lr.ph ], [ %..065, %18 ]
  %19 = getelementptr inbounds nuw [4 x %struct.AVComponentDescriptor], ptr %17, i64 0, i64 %indvars.iv
  %20 = load i32, ptr %19, align 4, !tbaa !9
  %..065 = tail call i32 @llvm.smax.i32(i32 %20, i32 %.06573)
  %indvars.iv.next = add nuw nsw i64 %indvars.iv, 1
  %exitcond.not = icmp eq i64 %indvars.iv.next, %wide.trip.count
  br i1 %exitcond.not, label %._crit_edge.loopexit, label %18, !llvm.loop !45

._crit_edge.loopexit:                             ; preds = %18
  %21 = add nuw i32 %..065, 1
  %22 = zext i32 %21 to i64
  br label %._crit_edge

._crit_edge:                                      ; preds = %._crit_edge.loopexit, %.preheader72
  %.065.lcssa = phi i64 [ 1, %.preheader72 ], [ %22, %._crit_edge.loopexit ]
  %23 = call i32 @av_image_fill_linesizes(ptr noundef nonnull %9, i32 noundef %4, i32 noundef %5)
  %24 = icmp sgt i32 %23, -1
  br i1 %24, label %.lr.ph85, label %29

.lr.ph85:                                         ; preds = %._crit_edge
  %25 = getelementptr inbounds nuw i8, ptr %11, i64 10
  %26 = add i32 %6, -1
  %27 = add i32 %7, -1
  %28 = sub i32 0, %7
  br label %30

29:                                               ; preds = %._crit_edge
  tail call void (ptr, i32, ptr, ...) @av_log(ptr noundef null, i32 noundef 0, ptr noundef nonnull @.str.3, ptr noundef nonnull @.str.4, ptr noundef nonnull @.str.5, i32 noundef 521) #11
  tail call void @abort() #13
  unreachable

30:                                               ; preds = %.lr.ph85, %._crit_edge80
  %indvars.iv92 = phi i64 [ 0, %.lr.ph85 ], [ %indvars.iv.next93, %._crit_edge80 ]
  %.06184 = phi ptr [ %0, %.lr.ph85 ], [ %.1.lcssa, %._crit_edge80 ]
  %31 = trunc i64 %indvars.iv92 to i32
  %32 = add i32 %31, -1
  %or.cond5 = icmp ult i32 %32, 2
  br i1 %or.cond5, label %33, label %36

33:                                               ; preds = %30
  %34 = load i8, ptr %25, align 2, !tbaa !22
  %35 = zext i8 %34 to i32
  br label %36

36:                                               ; preds = %30, %33
  %37 = phi i32 [ %35, %33 ], [ 0, %30 ]
  %38 = shl nuw i32 1, %37
  %39 = add i32 %26, %38
  %40 = ashr i32 %39, %37
  %41 = icmp sgt i32 %40, 0
  br i1 %41, label %.lr.ph79, label %._crit_edge80

.lr.ph79:                                         ; preds = %36
  %42 = getelementptr inbounds nuw ptr, ptr %2, i64 %indvars.iv92
  %43 = load ptr, ptr %42, align 8, !tbaa !26
  %44 = getelementptr inbounds nuw [4 x i32], ptr %9, i64 0, i64 %indvars.iv92
  %45 = load i32, ptr %44, align 4, !tbaa !10
  %46 = sext i32 %45 to i64
  %47 = add i32 %27, %45
  %48 = and i32 %47, %28
  %49 = sext i32 %48 to i64
  %50 = getelementptr inbounds nuw i32, ptr %3, i64 %indvars.iv92
  br label %51

51:                                               ; preds = %.lr.ph79, %51
  %.06077 = phi ptr [ %43, %.lr.ph79 ], [ %55, %51 ]
  %.176 = phi ptr [ %.06184, %.lr.ph79 ], [ %52, %51 ]
  %.06475 = phi i32 [ 0, %.lr.ph79 ], [ %56, %51 ]
  tail call void @llvm.memcpy.p0.p0.i64(ptr align 1 %.176, ptr align 1 %.06077, i64 %46, i1 false)
  %52 = getelementptr inbounds i8, ptr %.176, i64 %49
  %53 = load i32, ptr %50, align 4, !tbaa !10
  %54 = sext i32 %53 to i64
  %55 = getelementptr inbounds i8, ptr %.06077, i64 %54
  %56 = add nuw nsw i32 %.06475, 1
  %exitcond91.not = icmp eq i32 %56, %40
  br i1 %exitcond91.not, label %._crit_edge80, label %51, !llvm.loop !46

._crit_edge80:                                    ; preds = %51, %36
  %.1.lcssa = phi ptr [ %.06184, %36 ], [ %52, %51 ]
  %indvars.iv.next93 = add nuw nsw i64 %indvars.iv92, 1
  %exitcond96.not = icmp eq i64 %indvars.iv.next93, %.065.lcssa
  br i1 %exitcond96.not, label %._crit_edge86, label %30, !llvm.loop !47

._crit_edge86:                                    ; preds = %._crit_edge80
  %57 = getelementptr inbounds nuw i8, ptr %11, i64 16
  %58 = load i64, ptr %57, align 8, !tbaa !13
  %59 = and i64 %58, 2
  %.not70 = icmp eq i64 %59, 0
  br i1 %.not70, label %.loopexit, label %.preheader

.preheader:                                       ; preds = %._crit_edge86
  %60 = getelementptr inbounds nuw i8, ptr %2, i64 8
  br label %61

61:                                               ; preds = %.preheader, %61
  %indvars.iv97 = phi i64 [ 0, %.preheader ], [ %indvars.iv.next98, %61 ]
  %62 = load ptr, ptr %60, align 8, !tbaa !26
  %63 = shl nuw nsw i64 %indvars.iv97, 2
  %64 = getelementptr inbounds nuw i8, ptr %62, i64 %63
  %65 = load i32, ptr %64, align 1, !tbaa !48
  %66 = getelementptr inbounds nuw i32, ptr %.1.lcssa, i64 %indvars.iv97
  store i32 %65, ptr %66, align 1, !tbaa !48
  %indvars.iv.next98 = add nuw nsw i64 %indvars.iv97, 1
  %exitcond100.not = icmp eq i64 %indvars.iv.next98, 256
  br i1 %exitcond100.not, label %.loopexit, label %61, !llvm.loop !49

.loopexit:                                        ; preds = %61, %._crit_edge86, %8
  %.0 = phi i32 [ -22, %8 ], [ %10, %._crit_edge86 ], [ %10, %61 ]
  call void @llvm.lifetime.end.p0(i64 16, ptr nonnull %9) #11
  ret i32 %.0
}